target datalayout = "e-m:e-p270:32:32-p271:32:32-p272:64:64-i64:64-i128:128-f80:128-n8:16:32:64-S128"
target triple = "x86_64-pc-linux-gnu"

%struct.cl_fmap = type { ptr, ptr, ptr, i64, i64, i64, i64, i8, i8, i8, i64, i64, i64, i64, ptr, ptr, ptr, ptr, ptr, ptr, ptr, i8, [16 x i8], i8, [20 x i8], i8, [32 x i8], ptr, ptr }

; Function Attrs: nounwind uwtable
define internal ptr @mem_need_offstr(ptr noundef %0, i64 noundef %1, i64 noundef %2) #0 {
  %4 = alloca ptr, align 8
  %5 = alloca ptr, align 8
  %6 = alloca i64, align 8
  %7 = alloca i64, align 8
  %8 = alloca ptr, align 8
  store ptr %0, ptr %5, align 8
  store i64 %1, ptr %6, align 8
  store i64 %2, ptr %7, align 8
  %9 = load ptr, ptr %5, align 8
  %10 = getelementptr inbounds %struct.cl_fmap, ptr %9, i32 0, i32 11
  %11 = load i64, ptr %10, align 8
  %12 = load i64, ptr %6, align 8
  %13 = add i64 %12, %11
  store i64 %13, ptr %6, align 8
  %14 = load ptr, ptr %5, align 8
  %15 = getelementptr inbounds %struct.cl_fmap, ptr %14, i32 0, i32 2
  %16 = load ptr, ptr %15, align 8
  %17 = load i64, ptr %6, align 8
  %18 = getelementptr inbounds i8, ptr %16, i64 %17
  store ptr %18, ptr %8, align 8
  %19 = load i64, ptr %7, align 8
  %20 = icmp ne i64 %19, 0
  br i1 %20, label %21, label %29

21:                                               ; preds = %3
  %22 = load i64, ptr %7, align 8
  %23 = load ptr, ptr %5, align 8
  %24 = getelementptr inbounds %struct.cl_fmap, ptr %23, i32 0, i32 12
  %25 = load i64, ptr %24, align 8
  %26 = load i64, ptr %6, align 8
  %27 = sub i64 %25, %26
  %28 = icmp ugt i64 %22, %27
  br i1 %28, label %29, label %35

29:                                               ; preds = %21, %3
  %30 = load ptr, ptr %5, align 8
  %31 = getelementptr inbounds %struct.cl_fmap, ptr %30, i32 0, i32 12
  %32 = load i64, ptr %31, align 8
  %33 = load i64, ptr %6, align 8
  %34 = sub i64 %32, %33
  store i64 %34, ptr %7, align 8
  br label %35

35:                                               ; preds = %29, %21
  %36 = load ptr, ptr %5, align 8
  %37 = getelementptr inbounds %struct.cl_fmap, ptr %36, i32 0, i32 13
  %38 = load i64, ptr %37, align 8
  %39 = icmp ugt i64 %38, 0
  br i1 %39, label %40, label %85

40:                                               ; preds = %35
  %41 = load i64, ptr %7, align 8
  %42 = icmp ugt i64 %41, 0
  br i1 %42, label %43, label %85

43:                                               ; preds = %40
  %44 = load i64, ptr %7, align 8
  %45 = load ptr, ptr %5, align 8
  %46 = getelementptr inbounds %struct.cl_fmap, ptr %45, i32 0, i32 13
  %47 = load i64, ptr %46, align 8
  %48 = icmp ule i64 %44, %47
  br i1 %48, label %49, label %85

49:                                               ; preds = %43
  %50 = load i64, ptr %6, align 8
  %51 = load ptr, ptr %5, align 8
  %52 = getelementptr inbounds %struct.cl_fmap, ptr %51, i32 0, i32 11
  %53 = load i64, ptr %52, align 8
  %54 = icmp uge i64 %50, %53
  br i1 %54, label %55, label %85

55:                                               ; preds = %49
  %56 = load i64, ptr %6, align 8
  %57 = load i64, ptr %7, align 8
  %58 = add i64 %56, %57
  %59 = load ptr, ptr %5, align 8
  %60 = getelementptr inbounds %struct.cl_fmap, ptr %59, i32 0, i32 11
  %61 = load i64, ptr %60, align 8
  %62 = load ptr, ptr %5, align 8
  %63 = getelementptr inbounds %struct.cl_fmap, ptr %62, i32 0, i32 13
  %64 = load i64, ptr %63, align 8
  %65 = add i64 %61, %64
  %66 = icmp ule i64 %58, %65
  br i1 %66, label %67, label %85

67:                                               ; preds = %55
  %68 = load i64, ptr %6, align 8
  %69 = load i64, ptr %7, align 8
  %70 = add i64 %68, %69
  %71 = load ptr, ptr %5, align 8
  %72 = getelementptr inbounds %struct.cl_fmap, ptr %71, i32 0, i32 11
  %73 = load i64, ptr %72, align 8
  %74 = icmp ugt i64 %70, %73
  br i1 %74, label %75, label %85

75:                                               ; preds = %67
  %76 = load i64, ptr %6, align 8
  %77 = load ptr, ptr %5, align 8
  %78 = getelementptr inbounds %struct.cl_fmap, ptr %77, i32 0, i32 11
  %79 = load i64, ptr %78, align 8
  %80 = load ptr, ptr %5, align 8
  %81 = getelementptr inbounds %struct.cl_fmap, ptr %80, i32 0, i32 13
  %82 = load i64, ptr %81, align 8
  %83 = add i64 %79, %82
  %84 = icmp ult i64 %76, %83
  br i1 %84, label %86, label %85

85:                                               ; preds = %75, %67, %55, %49, %43, %40, %35
  store ptr null, ptr %4, align 8
  br label %94

86:                                               ; preds = %75
  %87 = load ptr, ptr %8, align 8
  %88 = load i64, ptr %7, align 8
  %89 = call ptr @memchr(ptr noundef %87, i32 noundef 0, i64 noundef %88) #11
  %90 = icmp ne ptr %89, null
  br i1 %90, label %91, label %93

91:                                               ; preds = %86
  %92 = load ptr, ptr %8, align 8
  store ptr %92, ptr %4, align 8
  br label %94

93:                                               ; preds = %86
  store ptr null, ptr %4, align 8
  br label %94

94:                                               ; preds = %93, %91, %85
  %95 = load ptr, ptr %4, align 8
  ret ptr %95
}