; Function Attrs: mustprogress nofree nounwind willreturn memory(read, inaccessiblemem: none) uwtable
define internal ptr @mem_need_offstr(ptr nocapture noundef readonly %0, i64 noundef %1, i64 noundef %2) #11 {
._crit_edge:
  %3 = getelementptr inbounds i8, ptr %0, i64 72
  %4 = load i64, ptr %3, align 8
  %5 = add i64 %4, %1
  %6 = getelementptr inbounds i8, ptr %0, i64 16
  %7 = load ptr, ptr %6, align 8
  %8 = getelementptr inbounds i8, ptr %7, i64 %5
  %.not = icmp eq i64 %2, 0
  %.phi.trans.insert = getelementptr inbounds i8, ptr %0, i64 80
  %.pre = load i64, ptr %.phi.trans.insert, align 8
  %.pre48 = sub i64 %.pre, %5
  %spec.select = tail call i64 @llvm.umin.i64(i64 %.pre48, i64 %2)
  %.030 = select i1 %.not, i64 %.pre48, i64 %spec.select
  %9 = getelementptr inbounds i8, ptr %0, i64 88
  %10 = load i64, ptr %9, align 8
  %11 = icmp eq i64 %10, 0
  %12 = add i64 %.030, -1
  %13 = icmp uge i64 %12, %10
  %or.cond41 = select i1 %11, i1 true, i1 %13
  %.not38 = icmp ult i64 %5, %4
  %or.cond44 = select i1 %or.cond41, i1 true, i1 %.not38
  br i1 %or.cond44, label %21, label %14

14:                                               ; preds = %._crit_edge
  %15 = add i64 %.030, %5
  %16 = add i64 %10, %4
  %.not39 = icmp ule i64 %15, %16
  %17 = icmp ugt i64 %15, %4
  %or.cond42 = and i1 %17, %.not39
  %18 = icmp ult i64 %5, %16
  %or.cond43 = and i1 %18, %or.cond42
  br i1 %or.cond43, label %19, label %21

19:                                               ; preds = %14
  %20 = tail call ptr @memchr(ptr noundef %8, i32 noundef 0, i64 noundef %.030) #21
  %.not40 = icmp eq ptr %20, null
  %. = select i1 %.not40, ptr null, ptr %8
  br label %21

21:                                               ; preds = %19, %._crit_edge, %14
  %.0 = phi ptr [ null, %14 ], [ null, %._crit_edge ], [ %., %19 ]
  ret ptr %.0
}